target datalayout = "e-m:e-p270:32:32-p271:32:32-p272:64:64-i64:64-i128:128-f80:128-n8:16:32:64-S128"
target triple = "x86_64-pc-linux-gnu"

%struct.XML_Memory_Handling_Suite = type { ptr, ptr, ptr }
%struct.XML_ParserStruct = type { ptr, ptr, ptr, %struct.XML_Memory_Handling_Suite, ptr, ptr, ptr, i64, ptr, i64, i8, i32, ptr, ptr, ptr, ptr, ptr, ptr, ptr, ptr, ptr, ptr, ptr, ptr, ptr, ptr, ptr, ptr, ptr, ptr, ptr, ptr, ptr, ptr, ptr, ptr, ptr, ptr, %struct.INIT_ENCODING, ptr, ptr, i8, i8, ptr, ptr, ptr, ptr, %struct.prolog_state, ptr, i32, ptr, ptr, ptr, ptr, ptr, i8, i32, ptr, ptr, ptr, ptr, ptr, ptr, ptr, ptr, ptr, i8, i8, ptr, ptr, ptr, ptr, ptr, ptr, i32, i32, i32, ptr, ptr, i64, i8, %struct.position, %struct.STRING_POOL, %struct.STRING_POOL, ptr, i32, i8, ptr, %struct.XML_ParsingStatus, i8, i8, i32, i64, %struct.accounting, %struct.entity_stats }
%struct.INIT_ENCODING = type { %struct.encoding, ptr }
%struct.encoding = type { [4 x ptr], [2 x ptr], ptr, ptr, ptr, ptr, ptr, ptr, ptr, ptr, ptr, ptr, i32, i8, i8 }
%struct.prolog_state = type { ptr, i32, i32, i32, i32, i32 }
%struct.position = type { i64, i64 }
%struct.STRING_POOL = type { ptr, ptr, ptr, ptr, ptr, ptr }
%struct.XML_ParsingStatus = type { i32, i8 }
%struct.accounting = type { i64, i64, i64, float, i64 }
%struct.entity_stats = type { i32, i32, i32, i64 }

; Function Attrs: nounwind uwtable
define hidden zeroext i8 @PyExpat_XML_SetReparseDeferralEnabled(ptr noundef %0, i8 noundef zeroext %1) #0 {
  %3 = alloca i8, align 1
  %4 = alloca ptr, align 8
  %5 = alloca i8, align 1
  store ptr %0, ptr %4, align 8, !tbaa !12
  store i8 %1, ptr %5, align 1, !tbaa !9
  %6 = load ptr, ptr %4, align 8, !tbaa !12
  %7 = icmp ne ptr %6, null
  br i1 %7, label %8, label %20

8:                                                ; preds = %2
  %9 = load i8, ptr %5, align 1, !tbaa !9
  %10 = zext i8 %9 to i32
  %11 = icmp eq i32 %10, 1
  br i1 %11, label %16, label %12

12:                                               ; preds = %8
  %13 = load i8, ptr %5, align 1, !tbaa !9
  %14 = zext i8 %13 to i32
  %15 = icmp eq i32 %14, 0
  br i1 %15, label %16, label %20

16:                                               ; preds = %12, %8
  %17 = load i8, ptr %5, align 1, !tbaa !9
  %18 = load ptr, ptr %4, align 8, !tbaa !12
  %19 = getelementptr inbounds nuw %struct.XML_ParserStruct, ptr %18, i32 0, i32 10
  store i8 %17, ptr %19, align 8, !tbaa !123
  store i8 1, ptr %3, align 1
  br label %21

20:                                               ; preds = %12, %2
  store i8 0, ptr %3, align 1
  br label %21

21:                                               ; preds = %20, %16
  %22 = load i8, ptr %3, align 1
  ret i8 %22
}